; Function Attrs: nofree norecurse nosync nounwind memory(read, inaccessiblemem: none) uwtable
define noundef ptr @TLSX_Find(ptr noundef readonly captures(address_is_null, ret: address, provenance) %0, i32 noundef %1) local_unnamed_addr #8 {
  %.not6 = icmp eq ptr %0, null
  br i1 %.not6, label %.critedge, label %.lr.ph

.lr.ph:                                           ; preds = %2, %4
  %.07 = phi ptr [ %6, %4 ], [ %0, %2 ]
  %3 = load i32, ptr %.07, align 8, !tbaa !60
  %.not5 = icmp eq i32 %3, %1
  br i1 %.not5, label %.critedge, label %4

4:                                                ; preds = %.lr.ph
  %5 = getelementptr inbounds nuw i8, ptr %.07, i64 24
  %6 = load ptr, ptr %5, align 8, !tbaa !63
  %.not = icmp eq ptr %6, null
  br i1 %.not, label %.critedge, label %.lr.ph, !llvm.loop !101

.critedge:                                        ; preds = %.lr.ph, %4, %2
  %.0.lcssa = phi ptr [ null, %2 ], [ null, %4 ], [ %.07, %.lr.ph ]
  ret ptr %.0.lcssa
}